target datalayout = "e-m:e-p270:32:32-p271:32:32-p272:64:64-i64:64-i128:128-f80:128-n8:16:32:64-S128"
target triple = "x86_64-pc-linux-gnu"

; Function Attrs: nounwind uwtable
define internal void @rstrip_spaces(ptr noundef %0) #0 {
  %2 = alloca ptr, align 8
  %3 = alloca i64, align 8
  store ptr %0, ptr %2, align 8, !tbaa !4
  call void @llvm.lifetime.start.p0(i64 8, ptr %3) #10
  %4 = load ptr, ptr %2, align 8, !tbaa !4
  %5 = call i64 @strlen(ptr noundef %4) #11
  store i64 %5, ptr %3, align 8, !tbaa !21
  br label %6

6:                                                ; preds = %19, %1
  %7 = load i64, ptr %3, align 8, !tbaa !21
  %8 = icmp ugt i64 %7, 0
  br i1 %8, label %9, label %17

9:                                                ; preds = %6
  %10 = load ptr, ptr %2, align 8, !tbaa !4
  %11 = load i64, ptr %3, align 8, !tbaa !21
  %12 = sub i64 %11, 1
  %13 = getelementptr inbounds nuw i8, ptr %10, i64 %12
  %14 = load i8, ptr %13, align 1, !tbaa !9
  %15 = sext i8 %14 to i32
  %16 = icmp eq i32 %15, 32
  br label %17

17:                                               ; preds = %9, %6
  %18 = phi i1 [ false, %6 ], [ %16, %9 ]
  br i1 %18, label %19, label %24

19:                                               ; preds = %17
  %20 = load ptr, ptr %2, align 8, !tbaa !4
  %21 = load i64, ptr %3, align 8, !tbaa !21
  %22 = add i64 %21, -1
  store i64 %22, ptr %3, align 8, !tbaa !21
  %23 = getelementptr inbounds nuw i8, ptr %20, i64 %22
  store i8 0, ptr %23, align 1, !tbaa !9
  br label %6, !llvm.loop !131

24:                                               ; preds = %17
  call void @llvm.lifetime.end.p0(i64 8, ptr %3) #10
  ret void
}