; Function Attrs: nofree norecurse nounwind memory(argmem: readwrite) uwtable
define internal fastcc void @rstrip_spaces(ptr noundef captures(none) %0) unnamed_addr #7 {
  %2 = tail call i64 @strlen(ptr noundef nonnull dereferenceable(1) %0) #10
  %invariant.gep = getelementptr i8, ptr %0, i64 -1
  %.not5 = icmp eq i64 %2, 0
  br i1 %.not5, label %.critedge, label %.lr.ph

.lr.ph:                                           ; preds = %1, %5
  %.06 = phi i64 [ %6, %5 ], [ %2, %1 ]
  %gep = getelementptr i8, ptr %invariant.gep, i64 %.06
  %3 = load i8, ptr %gep, align 1, !tbaa !4
  %4 = icmp eq i8 %3, 32
  br i1 %4, label %5, label %.critedge

5:                                                ; preds = %.lr.ph
  %6 = add i64 %.06, -1
  %7 = getelementptr inbounds nuw i8, ptr %0, i64 %6
  store i8 0, ptr %7, align 1, !tbaa !4
  %.not = icmp eq i64 %6, 0
  br i1 %.not, label %.critedge, label %.lr.ph, !llvm.loop !103

.critedge:                                        ; preds = %.lr.ph, %5, %1
  ret void
}